target datalayout = "e-m:e-p270:32:32-p271:32:32-p272:64:64-i64:64-i128:128-f80:128-n8:16:32:64-S128"
target triple = "x86_64-pc-linux-gnu"

%struct._e_addr_resolve = type { i8, i8, i8, i8, i8, i8, i8, i8, i8 }
%struct.hashipv6 = type { [16 x i8], i8, [46 x i8], [256 x i8] }

@gbl_resolv_flags = global %struct._e_addr_resolve { i8 1, i8 0, i8 0, i8 1, i8 0, i8 1, i8 0, i8 0, i8 1 }, align 1

; Function Attrs: null_pointer_is_valid sspstrong uwtable
define ptr @get_hostname6(ptr noundef %0) #3 {
  %2 = alloca ptr, align 8
  %3 = alloca ptr, align 8
  %4 = alloca ptr, align 8
  %5 = alloca i32, align 4
  store ptr %0, ptr %3, align 8
  call void @llvm.lifetime.start.p0(i64 8, ptr %4) #16
  %6 = load ptr, ptr %3, align 8
  %7 = call ptr @host_lookup6(ptr noundef %6)
  store ptr %7, ptr %4, align 8
  %8 = load i8, ptr getelementptr inbounds nuw (%struct._e_addr_resolve, ptr @gbl_resolv_flags, i32 0, i32 1), align 1, !range !8, !noundef !9
  %9 = trunc i8 %8 to i1
  br i1 %9, label %14, label %10

10:                                               ; preds = %1
  %11 = load ptr, ptr %4, align 8
  %12 = getelementptr inbounds nuw %struct.hashipv6, ptr %11, i32 0, i32 2
  %13 = getelementptr inbounds [46 x i8], ptr %12, i64 0, i64 0
  store ptr %13, ptr %2, align 8
  store i32 1, ptr %5, align 4
  br label %24

14:                                               ; preds = %1
  %15 = load ptr, ptr %4, align 8
  %16 = getelementptr inbounds nuw %struct.hashipv6, ptr %15, i32 0, i32 1
  %17 = load i8, ptr %16, align 1
  %18 = zext i8 %17 to i32
  %19 = or i32 %18, 4
  %20 = trunc i32 %19 to i8
  store i8 %20, ptr %16, align 1
  %21 = load ptr, ptr %4, align 8
  %22 = getelementptr inbounds nuw %struct.hashipv6, ptr %21, i32 0, i32 3
  %23 = getelementptr inbounds [256 x i8], ptr %22, i64 0, i64 0
  store ptr %23, ptr %2, align 8
  store i32 1, ptr %5, align 4
  br label %24

24:                                               ; preds = %14, %10
  call void @llvm.lifetime.end.p0(i64 8, ptr %4) #16
  %25 = load ptr, ptr %2, align 8
  ret ptr %25
}