; Function Attrs: null_pointer_is_valid sspstrong uwtable
define nonnull ptr @get_hostname6(ptr noundef %0) local_unnamed_addr #3 {
  %2 = tail call fastcc ptr @host_lookup6(ptr noundef %0)
  %3 = load i8, ptr getelementptr inbounds nuw (i8, ptr @gbl_resolv_flags, i64 1), align 1, !range !16, !noundef !17
  %4 = trunc nuw i8 %3 to i1
  br i1 %4, label %5, label %9

5:                                                ; preds = %1
  %6 = getelementptr inbounds nuw i8, ptr %2, i64 16
  %7 = load i8, ptr %6, align 1
  %8 = or i8 %7, 4
  store i8 %8, ptr %6, align 1
  br label %9

9:                                                ; preds = %1, %5
  %.sink = phi i64 [ 63, %5 ], [ 17, %1 ]
  %10 = getelementptr inbounds nuw i8, ptr %2, i64 %.sink
  ret ptr %10
}